; Function Attrs: mustprogress uwtable
define void @_ZN2cv7MatExpr4swapERS0_(ptr noundef nonnull align 8 dereferenceable(352) %0, ptr noundef nonnull align 8 dereferenceable(352) %1) local_unnamed_addr #8 align 2 personality ptr @__gxx_personality_v0 {
  %3 = load ptr, ptr %0, align 8
  %4 = load ptr, ptr %1, align 8
  store ptr %4, ptr %0, align 8
  store ptr %3, ptr %1, align 8
  %5 = getelementptr inbounds i8, ptr %0, i64 8
  %6 = getelementptr inbounds i8, ptr %1, i64 8
  %7 = load i32, ptr %5, align 8
  %8 = load i32, ptr %6, align 8
  store i32 %8, ptr %5, align 8
  store i32 %7, ptr %6, align 8
  %9 = getelementptr inbounds i8, ptr %0, i64 16
  %10 = getelementptr inbounds i8, ptr %1, i64 16
  tail call void @_ZN2cv4swapERNS_3MatES1_(ptr noundef nonnull align 8 dereferenceable(96) %9, ptr noundef nonnull align 8 dereferenceable(96) %10)
  %11 = getelementptr inbounds i8, ptr %0, i64 112
  %12 = getelementptr inbounds i8, ptr %1, i64 112
  tail call void @_ZN2cv4swapERNS_3MatES1_(ptr noundef nonnull align 8 dereferenceable(96) %11, ptr noundef nonnull align 8 dereferenceable(96) %12)
  %13 = getelementptr inbounds i8, ptr %0, i64 208
  %14 = getelementptr inbounds i8, ptr %1, i64 208
  tail call void @_ZN2cv4swapERNS_3MatES1_(ptr noundef nonnull align 8 dereferenceable(96) %13, ptr noundef nonnull align 8 dereferenceable(96) %14)
  %15 = getelementptr inbounds i8, ptr %0, i64 304
  %16 = getelementptr inbounds i8, ptr %1, i64 304
  %17 = load double, ptr %15, align 8
  %18 = load double, ptr %16, align 8
  store double %18, ptr %15, align 8
  store double %17, ptr %16, align 8
  %19 = getelementptr inbounds i8, ptr %0, i64 312
  %20 = getelementptr inbounds i8, ptr %1, i64 312
  %21 = load double, ptr %19, align 8
  %22 = load double, ptr %20, align 8
  store double %22, ptr %19, align 8
  store double %21, ptr %20, align 8
  %23 = getelementptr inbounds i8, ptr %0, i64 320
  %24 = getelementptr inbounds i8, ptr %1, i64 320
  %25 = getelementptr inbounds i8, ptr %0, i64 328
  %26 = getelementptr inbounds i8, ptr %0, i64 336
  %27 = getelementptr inbounds i8, ptr %0, i64 344
  %28 = load double, ptr %24, align 8
  %29 = getelementptr inbounds i8, ptr %1, i64 328
  %30 = getelementptr inbounds i8, ptr %1, i64 336
  %31 = getelementptr inbounds i8, ptr %1, i64 344
  %32 = load <2 x double>, ptr %23, align 8
  store double %28, ptr %23, align 8
  %33 = load double, ptr %29, align 8
  store double %33, ptr %25, align 8
  %34 = load double, ptr %30, align 8
  %35 = load <2 x double>, ptr %26, align 8
  store double %34, ptr %26, align 8
  %36 = load double, ptr %31, align 8
  store double %36, ptr %27, align 8
  store <2 x double> %32, ptr %24, align 8
  store <2 x double> %35, ptr %30, align 8
  ret void
}